target datalayout = "e-m:e-p270:32:32-p271:32:32-p272:64:64-i64:64-i128:128-f80:128-n8:16:32:64-S128"
target triple = "x86_64-pc-linux-gnu"

%struct.AVFilterLink = type { ptr, ptr, ptr, ptr, i32, i32, i32, i32, %struct.AVRational, i32, i32, i32, %struct.AVChannelLayout, %struct.AVRational, ptr, i32, %struct.AVFilterFormatsConfig, %struct.AVFilterFormatsConfig }
%struct.AVChannelLayout = type { i32, i32, %union.anon.1, ptr }
%union.anon.1 = type { i64 }
%struct.AVRational = type { i32, i32 }
%struct.AVFilterFormatsConfig = type { ptr, ptr, ptr, ptr, ptr }
%struct.AVFilterContext = type { ptr, ptr, ptr, ptr, ptr, i32, ptr, ptr, i32, ptr, ptr, i32, i32, ptr, ptr, ptr, ptr, i32, ptr, i32, i32 }
%struct.AspectContext = type { ptr, %struct.AVRational, %struct.AVRational, i32, ptr }

@.str.23 = private unnamed_addr constant [54 x i8] c"w:%d h:%d sar:%d/%d dar:%d/%d -> sar:%d/%d dar:%d/%d\0A\00", align 1

; Function Attrs: inlinehint nounwind uwtable
define internal void @compute_dar(ptr noundef %0, i64 %1, i32 noundef %2, i32 noundef %3) #4 {
  %5 = alloca %struct.AVRational, align 4
  %6 = alloca ptr, align 8
  %7 = alloca i32, align 4
  %8 = alloca i32, align 4
  store i64 %1, ptr %5, align 4
  store ptr %0, ptr %6, align 8, !tbaa !50
  store i32 %2, ptr %7, align 4, !tbaa !36
  store i32 %3, ptr %8, align 4, !tbaa !36
  %9 = getelementptr inbounds nuw %struct.AVRational, ptr %5, i32 0, i32 0
  %10 = load i32, ptr %9, align 4, !tbaa !46
  %11 = icmp ne i32 %10, 0
  br i1 %11, label %12, label %34

12:                                               ; preds = %4
  %13 = getelementptr inbounds nuw %struct.AVRational, ptr %5, i32 0, i32 1
  %14 = load i32, ptr %13, align 4, !tbaa !47
  %15 = icmp ne i32 %14, 0
  br i1 %15, label %16, label %34

16:                                               ; preds = %12
  %17 = load ptr, ptr %6, align 8, !tbaa !50
  %18 = getelementptr inbounds nuw %struct.AVRational, ptr %17, i32 0, i32 0
  %19 = load ptr, ptr %6, align 8, !tbaa !50
  %20 = getelementptr inbounds nuw %struct.AVRational, ptr %19, i32 0, i32 1
  %21 = getelementptr inbounds nuw %struct.AVRational, ptr %5, i32 0, i32 0
  %22 = load i32, ptr %21, align 4, !tbaa !46
  %23 = sext i32 %22 to i64
  %24 = load i32, ptr %7, align 4, !tbaa !36
  %25 = sext i32 %24 to i64
  %26 = mul nsw i64 %23, %25
  %27 = getelementptr inbounds nuw %struct.AVRational, ptr %5, i32 0, i32 1
  %28 = load i32, ptr %27, align 4, !tbaa !47
  %29 = sext i32 %28 to i64
  %30 = load i32, ptr %8, align 4, !tbaa !36
  %31 = sext i32 %30 to i64
  %32 = mul nsw i64 %29, %31
  %33 = call i32 @av_reduce(ptr noundef %18, ptr noundef %20, i64 noundef %26, i64 noundef %32, i64 noundef 2147483647)
  br label %44

34:                                               ; preds = %12, %4
  %35 = load ptr, ptr %6, align 8, !tbaa !50
  %36 = getelementptr inbounds nuw %struct.AVRational, ptr %35, i32 0, i32 0
  %37 = load ptr, ptr %6, align 8, !tbaa !50
  %38 = getelementptr inbounds nuw %struct.AVRational, ptr %37, i32 0, i32 1
  %39 = load i32, ptr %7, align 4, !tbaa !36
  %40 = sext i32 %39 to i64
  %41 = load i32, ptr %8, align 4, !tbaa !36
  %42 = sext i32 %41 to i64
  %43 = call i32 @av_reduce(ptr noundef %36, ptr noundef %38, i64 noundef %40, i64 noundef %42, i64 noundef 2147483647)
  br label %44

44:                                               ; preds = %34, %16
  ret void
}

; Function Attrs: nounwind uwtable
define internal i32 @setsar_config_props(ptr noundef %0) #0 {
  %2 = alloca i32, align 4
  %3 = alloca ptr, align 8
  %4 = alloca ptr, align 8
  %5 = alloca ptr, align 8
  %6 = alloca ptr, align 8
  %7 = alloca %struct.AVRational, align 4
  %8 = alloca %struct.AVRational, align 4
  %9 = alloca %struct.AVRational, align 4
  %10 = alloca i32, align 4
  %11 = alloca i32, align 4
  store ptr %0, ptr %3, align 8, !tbaa !4
  call void @llvm.lifetime.start.p0(i64 8, ptr %4) #6
  %12 = load ptr, ptr %3, align 8, !tbaa !4
  %13 = getelementptr inbounds nuw %struct.AVFilterLink, ptr %12, i32 0, i32 0
  %14 = load ptr, ptr %13, align 8, !tbaa !38
  store ptr %14, ptr %4, align 8, !tbaa !39
  call void @llvm.lifetime.start.p0(i64 8, ptr %5) #6
  %15 = load ptr, ptr %4, align 8, !tbaa !39
  %16 = getelementptr inbounds nuw %struct.AVFilterContext, ptr %15, i32 0, i32 4
  %17 = load ptr, ptr %16, align 8, !tbaa !40
  %18 = getelementptr inbounds ptr, ptr %17, i64 0
  %19 = load ptr, ptr %18, align 8, !tbaa !4
  store ptr %19, ptr %5, align 8, !tbaa !4
  call void @llvm.lifetime.start.p0(i64 8, ptr %6) #6
  %20 = load ptr, ptr %4, align 8, !tbaa !39
  %21 = getelementptr inbounds nuw %struct.AVFilterContext, ptr %20, i32 0, i32 9
  %22 = load ptr, ptr %21, align 8, !tbaa !23
  store ptr %22, ptr %6, align 8, !tbaa !33
  call void @llvm.lifetime.start.p0(i64 8, ptr %7) #6
  %23 = load ptr, ptr %5, align 8, !tbaa !4
  %24 = getelementptr inbounds nuw %struct.AVFilterLink, ptr %23, i32 0, i32 8
  call void @llvm.memcpy.p0.p0.i64(ptr align 4 %7, ptr align 8 %24, i64 8, i1 false), !tbaa.struct !35
  call void @llvm.lifetime.start.p0(i64 8, ptr %8) #6
  call void @llvm.lifetime.start.p0(i64 8, ptr %9) #6
  call void @llvm.lifetime.start.p0(i64 4, ptr %10) #6
  %25 = load ptr, ptr %5, align 8, !tbaa !4
  %26 = load ptr, ptr %6, align 8, !tbaa !33
  %27 = getelementptr inbounds nuw %struct.AspectContext, ptr %26, i32 0, i32 2
  %28 = call i32 @get_aspect_ratio(ptr noundef %25, ptr noundef %27)
  store i32 %28, ptr %10, align 4, !tbaa !36
  %29 = icmp ne i32 %28, 0
  br i1 %29, label %30, label %32

30:                                               ; preds = %1
  %31 = load i32, ptr %10, align 4, !tbaa !36
  store i32 %31, ptr %2, align 4
  store i32 1, ptr %11, align 4
  br label %80

32:                                               ; preds = %1
  %33 = load ptr, ptr %3, align 8, !tbaa !4
  %34 = getelementptr inbounds nuw %struct.AVFilterLink, ptr %33, i32 0, i32 8
  %35 = load ptr, ptr %6, align 8, !tbaa !33
  %36 = getelementptr inbounds nuw %struct.AspectContext, ptr %35, i32 0, i32 2
  call void @llvm.memcpy.p0.p0.i64(ptr align 8 %34, ptr align 8 %36, i64 8, i1 false), !tbaa.struct !35
  %37 = load ptr, ptr %5, align 8, !tbaa !4
  %38 = getelementptr inbounds nuw %struct.AVFilterLink, ptr %37, i32 0, i32 6
  %39 = load i32, ptr %38, align 8, !tbaa !45
  %40 = load ptr, ptr %5, align 8, !tbaa !4
  %41 = getelementptr inbounds nuw %struct.AVFilterLink, ptr %40, i32 0, i32 7
  %42 = load i32, ptr %41, align 4, !tbaa !44
  %43 = load i64, ptr %7, align 4
  call void @compute_dar(ptr noundef %8, i64 %43, i32 noundef %39, i32 noundef %42)
  %44 = load ptr, ptr %6, align 8, !tbaa !33
  %45 = getelementptr inbounds nuw %struct.AspectContext, ptr %44, i32 0, i32 2
  %46 = load ptr, ptr %5, align 8, !tbaa !4
  %47 = getelementptr inbounds nuw %struct.AVFilterLink, ptr %46, i32 0, i32 6
  %48 = load i32, ptr %47, align 8, !tbaa !45
  %49 = load ptr, ptr %5, align 8, !tbaa !4
  %50 = getelementptr inbounds nuw %struct.AVFilterLink, ptr %49, i32 0, i32 7
  %51 = load i32, ptr %50, align 4, !tbaa !44
  %52 = load i64, ptr %45, align 8
  call void @compute_dar(ptr noundef %9, i64 %52, i32 noundef %48, i32 noundef %51)
  %53 = load ptr, ptr %4, align 8, !tbaa !39
  %54 = load ptr, ptr %5, align 8, !tbaa !4
  %55 = getelementptr inbounds nuw %struct.AVFilterLink, ptr %54, i32 0, i32 6
  %56 = load i32, ptr %55, align 8, !tbaa !45
  %57 = load ptr, ptr %5, align 8, !tbaa !4
  %58 = getelementptr inbounds nuw %struct.AVFilterLink, ptr %57, i32 0, i32 7
  %59 = load i32, ptr %58, align 4, !tbaa !44
  %60 = getelementptr inbounds nuw %struct.AVRational, ptr %7, i32 0, i32 0
  %61 = load i32, ptr %60, align 4, !tbaa !46
  %62 = getelementptr inbounds nuw %struct.AVRational, ptr %7, i32 0, i32 1
  %63 = load i32, ptr %62, align 4, !tbaa !47
  %64 = getelementptr inbounds nuw %struct.AVRational, ptr %8, i32 0, i32 0
  %65 = load i32, ptr %64, align 4, !tbaa !46
  %66 = getelementptr inbounds nuw %struct.AVRational, ptr %8, i32 0, i32 1
  %67 = load i32, ptr %66, align 4, !tbaa !47
  %68 = load ptr, ptr %3, align 8, !tbaa !4
  %69 = getelementptr inbounds nuw %struct.AVFilterLink, ptr %68, i32 0, i32 8
  %70 = getelementptr inbounds nuw %struct.AVRational, ptr %69, i32 0, i32 0
  %71 = load i32, ptr %70, align 8, !tbaa !48
  %72 = load ptr, ptr %3, align 8, !tbaa !4
  %73 = getelementptr inbounds nuw %struct.AVFilterLink, ptr %72, i32 0, i32 8
  %74 = getelementptr inbounds nuw %struct.AVRational, ptr %73, i32 0, i32 1
  %75 = load i32, ptr %74, align 4, !tbaa !49
  %76 = getelementptr inbounds nuw %struct.AVRational, ptr %9, i32 0, i32 0
  %77 = load i32, ptr %76, align 4, !tbaa !46
  %78 = getelementptr inbounds nuw %struct.AVRational, ptr %9, i32 0, i32 1
  %79 = load i32, ptr %78, align 4, !tbaa !47
  call void (ptr, i32, ptr, ...) @av_log(ptr noundef %53, i32 noundef 40, ptr noundef @.str.23, i32 noundef %56, i32 noundef %59, i32 noundef %61, i32 noundef %63, i32 noundef %65, i32 noundef %67, i32 noundef %71, i32 noundef %75, i32 noundef %77, i32 noundef %79)
  store i32 0, ptr %2, align 4
  store i32 1, ptr %11, align 4
  br label %80

80:                                               ; preds = %32, %30
  call void @llvm.lifetime.end.p0(i64 4, ptr %10) #6
  call void @llvm.lifetime.end.p0(i64 8, ptr %9) #6
  call void @llvm.lifetime.end.p0(i64 8, ptr %8) #6
  call void @llvm.lifetime.end.p0(i64 8, ptr %7) #6
  call void @llvm.lifetime.end.p0(i64 8, ptr %6) #6
  call void @llvm.lifetime.end.p0(i64 8, ptr %5) #6
  call void @llvm.lifetime.end.p0(i64 8, ptr %4) #6
  %81 = load i32, ptr %2, align 4
  ret i32 %81
}