; Function Attrs: nounwind uwtable
define internal range(i32 -2147483648, 1) i32 @setsar_config_props(ptr noundef captures(none) %0) #0 {
  %2 = alloca %struct.AVRational, align 4
  %3 = alloca %struct.AVRational, align 4
  %4 = load ptr, ptr %0, align 8, !tbaa !32
  %5 = getelementptr inbounds nuw i8, ptr %4, i64 32
  %6 = load ptr, ptr %5, align 8, !tbaa !33
  %7 = load ptr, ptr %6, align 8, !tbaa !30
  %8 = getelementptr inbounds nuw i8, ptr %4, i64 72
  %9 = load ptr, ptr %8, align 8, !tbaa !19
  %10 = getelementptr inbounds nuw i8, ptr %7, i64 48
  %.sroa.0.0.copyload = load i32, ptr %10, align 8, !tbaa !34
  %.sroa.5.0..sroa_idx = getelementptr inbounds nuw i8, ptr %7, i64 52
  %.sroa.5.0.copyload = load i32, ptr %.sroa.5.0..sroa_idx, align 4, !tbaa !34
  call void @llvm.lifetime.start.p0(i64 8, ptr nonnull %2) #4
  call void @llvm.lifetime.start.p0(i64 8, ptr nonnull %3) #4
  %11 = getelementptr inbounds nuw i8, ptr %9, i64 16
  %12 = tail call fastcc i32 @get_aspect_ratio(ptr noundef %7, ptr noundef nonnull %11)
  %.not = icmp eq i32 %12, 0
  br i1 %.not, label %13, label %63

13:                                               ; preds = %1
  %14 = getelementptr inbounds nuw i8, ptr %0, i64 48
  %15 = load i64, ptr %11, align 8
  store i64 %15, ptr %14, align 8
  %16 = getelementptr inbounds nuw i8, ptr %7, i64 40
  %17 = load i32, ptr %16, align 8, !tbaa !39
  %18 = getelementptr inbounds nuw i8, ptr %7, i64 44
  %19 = load i32, ptr %18, align 4, !tbaa !38
  %20 = icmp ne i32 %.sroa.0.0.copyload, 0
  %21 = icmp ne i32 %.sroa.5.0.copyload, 0
  %or.cond.i = and i1 %20, %21
  %22 = getelementptr inbounds nuw i8, ptr %2, i64 4
  br i1 %or.cond.i, label %23, label %31

23:                                               ; preds = %13
  %24 = sext i32 %.sroa.0.0.copyload to i64
  %25 = sext i32 %17 to i64
  %26 = mul nsw i64 %25, %24
  %27 = sext i32 %.sroa.5.0.copyload to i64
  %28 = sext i32 %19 to i64
  %29 = mul nsw i64 %28, %27
  %30 = call i32 @av_reduce(ptr noundef nonnull %2, ptr noundef nonnull %22, i64 noundef %26, i64 noundef %29, i64 noundef 2147483647) #4
  br label %compute_dar.exit

31:                                               ; preds = %13
  %32 = sext i32 %17 to i64
  %33 = sext i32 %19 to i64
  %34 = call i32 @av_reduce(ptr noundef nonnull %2, ptr noundef nonnull %22, i64 noundef %32, i64 noundef %33, i64 noundef 2147483647) #4
  br label %compute_dar.exit

compute_dar.exit:                                 ; preds = %23, %31
  %35 = load i32, ptr %16, align 8, !tbaa !39
  %36 = load i32, ptr %18, align 4, !tbaa !38
  %37 = load i64, ptr %11, align 8
  %38 = and i64 %37, 4294967295
  %39 = icmp ne i64 %38, 0
  %40 = icmp ugt i64 %37, 4294967295
  %or.cond.i21 = and i1 %40, %39
  %41 = getelementptr inbounds nuw i8, ptr %3, i64 4
  br i1 %or.cond.i21, label %42, label %50

42:                                               ; preds = %compute_dar.exit
  %sext.i22 = shl i64 %37, 32
  %43 = ashr exact i64 %sext.i22, 32
  %44 = sext i32 %35 to i64
  %45 = mul nsw i64 %43, %44
  %46 = ashr i64 %37, 32
  %47 = sext i32 %36 to i64
  %48 = mul nsw i64 %46, %47
  %49 = call i32 @av_reduce(ptr noundef nonnull %3, ptr noundef nonnull %41, i64 noundef %45, i64 noundef %48, i64 noundef 2147483647) #4
  br label %compute_dar.exit23

50:                                               ; preds = %compute_dar.exit
  %51 = sext i32 %35 to i64
  %52 = sext i32 %36 to i64
  %53 = call i32 @av_reduce(ptr noundef nonnull %3, ptr noundef nonnull %41, i64 noundef %51, i64 noundef %52, i64 noundef 2147483647) #4
  br label %compute_dar.exit23

compute_dar.exit23:                               ; preds = %42, %50
  %54 = load i32, ptr %16, align 8, !tbaa !39
  %55 = load i32, ptr %18, align 4, !tbaa !38
  %56 = load i32, ptr %2, align 4, !tbaa !40
  %57 = load i32, ptr %22, align 4, !tbaa !41
  %58 = load i32, ptr %14, align 8, !tbaa !42
  %59 = getelementptr inbounds nuw i8, ptr %0, i64 52
  %60 = load i32, ptr %59, align 4, !tbaa !43
  %61 = load i32, ptr %3, align 4, !tbaa !40
  %62 = load i32, ptr %41, align 4, !tbaa !41
  call void (ptr, i32, ptr, ...) @av_log(ptr noundef nonnull %4, i32 noundef 40, ptr noundef nonnull @.str.23, i32 noundef %54, i32 noundef %55, i32 noundef %.sroa.0.0.copyload, i32 noundef %.sroa.5.0.copyload, i32 noundef %56, i32 noundef %57, i32 noundef %58, i32 noundef %60, i32 noundef %61, i32 noundef %62) #4
  br label %63

63:                                               ; preds = %1, %compute_dar.exit23
  call void @llvm.lifetime.end.p0(i64 8, ptr nonnull %3) #4
  call void @llvm.lifetime.end.p0(i64 8, ptr nonnull %2) #4
  ret i32 %12
}